target datalayout = "e-m:e-p270:32:32-p271:32:32-p272:64:64-i64:64-i128:128-f80:128-n8:16:32:64-S128"
target triple = "x86_64-pc-linux-gnu"

%class.Metadata = type { ptr }
%class.AccessFlags = type { i32 }
%class.Method = type { %class.Metadata, ptr, ptr, ptr, ptr, %class.AccessFlags, i32, %class.MethodFlags, i16, %class.JfrTraceFlag, ptr, ptr, ptr, ptr }
%class.MethodFlags = type { i32 }
%class.JfrTraceFlag = type { i16 }
%class.itableMethodEntry = type { ptr }
%class.klassItable = type <{ ptr, i32, i32, i32, [4 x i8] }>

@tty = external global ptr, align 8
@.str.13 = private unnamed_addr constant [14 x i8] c"      (%5d)  \00", align 1
@.str.14 = private unnamed_addr constant [9 x i8] c"default \00", align 1
@.str.16 = private unnamed_addr constant [6 x i8] c" --  \00", align 1
@.str.26 = private unnamed_addr constant [15 x i8] c"itable dump --\00", align 1

; Function Attrs: mustprogress nounwind uwtable
define linkonce_odr hidden noundef i32 @_ZN17itableOffsetEntry4sizeEv() #1 comdat align 2 {
  ret i32 2
}

; Function Attrs: mustprogress nounwind uwtable
define linkonce_odr hidden noundef ptr @_ZNK11klassItable12vtable_startEv(ptr noundef nonnull align 8 dereferenceable(20) %0) #1 comdat align 2 {
  %2 = alloca ptr, align 8
  store ptr %0, ptr %2, align 8
  %3 = load ptr, ptr %2, align 8
  %4 = getelementptr inbounds %class.klassItable, ptr %3, i32 0, i32 0
  %5 = load ptr, ptr %4, align 8
  %6 = getelementptr inbounds %class.klassItable, ptr %3, i32 0, i32 1
  %7 = load i32, ptr %6, align 8
  %8 = sext i32 %7 to i64
  %9 = getelementptr inbounds i64, ptr %5, i64 %8
  ret ptr %9
}

; Function Attrs: mustprogress nounwind uwtable
define linkonce_odr hidden noundef ptr @_ZNK11klassItable12method_startEv(ptr noundef nonnull align 8 dereferenceable(20) %0) #1 comdat align 2 {
  %2 = alloca ptr, align 8
  store ptr %0, ptr %2, align 8
  %3 = load ptr, ptr %2, align 8
  %4 = call noundef ptr @_ZNK11klassItable12vtable_startEv(ptr noundef nonnull align 8 dereferenceable(20) %3)
  %5 = getelementptr inbounds %class.klassItable, ptr %3, i32 0, i32 2
  %6 = load i32, ptr %5, align 4
  %7 = call noundef i32 @_ZN17itableOffsetEntry4sizeEv()
  %8 = mul nsw i32 %6, %7
  %9 = sext i32 %8 to i64
  %10 = getelementptr inbounds i64, ptr %4, i64 %9
  ret ptr %10
}

; Function Attrs: mustprogress nounwind uwtable
define linkonce_odr hidden i32 @_ZNK6Method12access_flagsEv(ptr noundef nonnull align 8 dereferenceable(88) %0) #1 comdat align 2 {
  %2 = alloca %class.AccessFlags, align 4
  %3 = alloca ptr, align 8
  store ptr %0, ptr %3, align 8
  %4 = load ptr, ptr %3, align 8
  %5 = getelementptr inbounds %class.Method, ptr %4, i32 0, i32 5
  call void @llvm.memcpy.p0.p0.i64(ptr align 4 %2, ptr align 8 %5, i64 4, i1 false)
  %6 = getelementptr inbounds %class.AccessFlags, ptr %2, i32 0, i32 0
  %7 = load i32, ptr %6, align 4
  ret i32 %7
}

; Function Attrs: mustprogress nounwind uwtable
define linkonce_odr hidden noundef ptr @_ZNK17itableMethodEntry6methodEv(ptr noundef nonnull align 8 dereferenceable(8) %0) #1 comdat align 2 {
  %2 = alloca ptr, align 8
  store ptr %0, ptr %2, align 8
  %3 = load ptr, ptr %2, align 8
  %4 = getelementptr inbounds %class.itableMethodEntry, ptr %3, i32 0, i32 0
  %5 = load ptr, ptr %4, align 8
  ret ptr %5
}

; Function Attrs: mustprogress nounwind uwtable
define linkonce_odr hidden noundef ptr @_ZN11klassItable12method_entryEi(ptr noundef nonnull align 8 dereferenceable(20) %0, i32 noundef %1) #1 comdat align 2 {
  %3 = alloca ptr, align 8
  %4 = alloca i32, align 4
  store ptr %0, ptr %3, align 8
  store i32 %1, ptr %4, align 4
  %5 = load ptr, ptr %3, align 8
  %6 = call noundef ptr @_ZNK11klassItable12method_startEv(ptr noundef nonnull align 8 dereferenceable(20) %5)
  %7 = load i32, ptr %4, align 4
  %8 = sext i32 %7 to i64
  %9 = getelementptr inbounds %class.itableMethodEntry, ptr %6, i64 %8
  ret ptr %9
}

; Function Attrs: mustprogress nounwind uwtable
define hidden void @_ZN11klassItable11dump_itableEv(ptr noundef nonnull align 8 dereferenceable(20) %0) #1 align 2 {
  %2 = alloca ptr, align 8
  %3 = alloca ptr, align 8
  %4 = alloca i32, align 4
  %5 = alloca ptr, align 8
  %6 = alloca %class.AccessFlags, align 4
  store ptr %0, ptr %2, align 8
  %7 = load ptr, ptr %2, align 8
  %8 = call noundef ptr @_ZN11klassItable12method_entryEi(ptr noundef nonnull align 8 dereferenceable(20) %7, i32 noundef 0)
  store ptr %8, ptr %3, align 8
  %9 = load ptr, ptr @tty, align 8
  call void (ptr, ptr, ...) @_ZN12outputStream8print_crEPKcz(ptr noundef nonnull align 8 dereferenceable(56) %9, ptr noundef @.str.26)
  store i32 0, ptr %4, align 4
  br label %10

10:                                               ; preds = %39, %1
  %11 = load i32, ptr %4, align 4
  %12 = getelementptr inbounds %class.klassItable, ptr %7, i32 0, i32 3
  %13 = load i32, ptr %12, align 8
  %14 = icmp slt i32 %11, %13
  br i1 %14, label %15, label %42

15:                                               ; preds = %10
  %16 = load ptr, ptr %3, align 8
  %17 = call noundef ptr @_ZNK17itableMethodEntry6methodEv(ptr noundef nonnull align 8 dereferenceable(8) %16)
  store ptr %17, ptr %5, align 8
  %18 = load ptr, ptr %5, align 8
  %19 = icmp ne ptr %18, null
  br i1 %19, label %20, label %36

20:                                               ; preds = %15
  %21 = load ptr, ptr @tty, align 8
  %22 = load i32, ptr %4, align 4
  call void (ptr, ptr, ...) @_ZN12outputStream5printEPKcz(ptr noundef nonnull align 8 dereferenceable(56) %21, ptr noundef @.str.13, i32 noundef %22)
  %23 = load ptr, ptr %5, align 8
  %24 = call i32 @_ZNK6Method12access_flagsEv(ptr noundef nonnull align 8 dereferenceable(88) %23)
  %25 = getelementptr inbounds %class.AccessFlags, ptr %6, i32 0, i32 0
  store i32 %24, ptr %25, align 4
  %26 = load ptr, ptr @tty, align 8
  call void @_ZNK11AccessFlags8print_onEP12outputStream(ptr noundef nonnull align 4 dereferenceable(4) %6, ptr noundef %26)
  %27 = load ptr, ptr %5, align 8
  %28 = call noundef zeroext i1 @_ZNK6Method17is_default_methodEv(ptr noundef nonnull align 8 dereferenceable(88) %27)
  br i1 %28, label %29, label %31

29:                                               ; preds = %20
  %30 = load ptr, ptr @tty, align 8
  call void (ptr, ptr, ...) @_ZN12outputStream5printEPKcz(ptr noundef nonnull align 8 dereferenceable(56) %30, ptr noundef @.str.14)
  br label %31

31:                                               ; preds = %29, %20
  %32 = load ptr, ptr @tty, align 8
  call void (ptr, ptr, ...) @_ZN12outputStream5printEPKcz(ptr noundef nonnull align 8 dereferenceable(56) %32, ptr noundef @.str.16)
  %33 = load ptr, ptr %5, align 8
  %34 = load ptr, ptr @tty, align 8
  call void @_ZNK6Method10print_nameEP12outputStream(ptr noundef nonnull align 8 dereferenceable(88) %33, ptr noundef %34)
  %35 = load ptr, ptr @tty, align 8
  call void @_ZN12outputStream2crEv(ptr noundef nonnull align 8 dereferenceable(56) %35)
  br label %36

36:                                               ; preds = %31, %15
  %37 = load ptr, ptr %3, align 8
  %38 = getelementptr inbounds %class.itableMethodEntry, ptr %37, i32 1
  store ptr %38, ptr %3, align 8
  br label %39

39:                                               ; preds = %36
  %40 = load i32, ptr %4, align 4
  %41 = add nsw i32 %40, 1
  store i32 %41, ptr %4, align 4
  br label %10, !llvm.loop !34

42:                                               ; preds = %10
  ret void
}