; Function Attrs: mustprogress nounwind uwtable
define hidden void @_ZN11klassItable11dump_itableEv(ptr nocapture noundef nonnull readonly align 8 dereferenceable(20) %0) local_unnamed_addr #1 align 2 {
  %2 = alloca %class.AccessFlags, align 4
  %3 = load ptr, ptr %0, align 8
  %4 = getelementptr inbounds i8, ptr %0, i64 8
  %5 = load i32, ptr %4, align 8
  %6 = getelementptr inbounds i8, ptr %0, i64 12
  %7 = load i32, ptr %6, align 4
  %8 = load ptr, ptr @tty, align 8
  tail call void (ptr, ptr, ...) @_ZN12outputStream8print_crEPKcz(ptr noundef nonnull align 8 dereferenceable(56) %8, ptr noundef nonnull @.str.26) #14
  %9 = getelementptr inbounds i8, ptr %0, i64 16
  %10 = load i32, ptr %9, align 8
  %11 = icmp sgt i32 %10, 0
  br i1 %11, label %.lr.ph.preheader, label %._crit_edge

.lr.ph.preheader:                                 ; preds = %1
  %12 = sext i32 %5 to i64
  %13 = getelementptr inbounds i64, ptr %3, i64 %12
  %14 = shl nsw i32 %7, 1
  %15 = sext i32 %14 to i64
  %16 = getelementptr inbounds i64, ptr %13, i64 %15
  br label %.lr.ph

.lr.ph:                                           ; preds = %.lr.ph.preheader, %30
  %17 = phi i32 [ %31, %30 ], [ %10, %.lr.ph.preheader ]
  %.012 = phi ptr [ %32, %30 ], [ %16, %.lr.ph.preheader ]
  %.0911 = phi i32 [ %33, %30 ], [ 0, %.lr.ph.preheader ]
  %18 = load ptr, ptr %.012, align 8
  %.not = icmp eq ptr %18, null
  br i1 %.not, label %30, label %19

19:                                               ; preds = %.lr.ph
  %20 = load ptr, ptr @tty, align 8
  call void (ptr, ptr, ...) @_ZN12outputStream5printEPKcz(ptr noundef nonnull align 8 dereferenceable(56) %20, ptr noundef nonnull @.str.13, i32 noundef %.0911) #14
  %21 = getelementptr inbounds i8, ptr %18, i64 40
  %.sroa.0.0.copyload.i = load i32, ptr %21, align 8
  store i32 %.sroa.0.0.copyload.i, ptr %2, align 4
  %22 = load ptr, ptr @tty, align 8
  call void @_ZNK11AccessFlags8print_onEP12outputStream(ptr noundef nonnull align 4 dereferenceable(4) %2, ptr noundef %22) #14
  %23 = call noundef zeroext i1 @_ZNK6Method17is_default_methodEv(ptr noundef nonnull align 8 dereferenceable(88) %18) #14
  br i1 %23, label %24, label %26

24:                                               ; preds = %19
  %25 = load ptr, ptr @tty, align 8
  call void (ptr, ptr, ...) @_ZN12outputStream5printEPKcz(ptr noundef nonnull align 8 dereferenceable(56) %25, ptr noundef nonnull @.str.14) #14
  br label %26

26:                                               ; preds = %24, %19
  %27 = load ptr, ptr @tty, align 8
  call void (ptr, ptr, ...) @_ZN12outputStream5printEPKcz(ptr noundef nonnull align 8 dereferenceable(56) %27, ptr noundef nonnull @.str.16) #14
  %28 = load ptr, ptr @tty, align 8
  call void @_ZNK6Method10print_nameEP12outputStream(ptr noundef nonnull align 8 dereferenceable(88) %18, ptr noundef %28) #14
  %29 = load ptr, ptr @tty, align 8
  call void @_ZN12outputStream2crEv(ptr noundef nonnull align 8 dereferenceable(56) %29) #14
  %.pre = load i32, ptr %9, align 8
  br label %30

30:                                               ; preds = %26, %.lr.ph
  %31 = phi i32 [ %.pre, %26 ], [ %17, %.lr.ph ]
  %32 = getelementptr inbounds i8, ptr %.012, i64 8
  %33 = add nuw nsw i32 %.0911, 1
  %34 = icmp slt i32 %33, %31
  br i1 %34, label %.lr.ph, label %._crit_edge, !llvm.loop !36

._crit_edge:                                      ; preds = %30, %1
  ret void
}